(lp0
(VA
p1
(lp2
S'fiiffddhgdgddiiii'
p3
aS'fiffffhdddhddddhh'
p4
aS'iffiiiiddddhhddhf'
p5
aS'ffiififhdhdhiiiii'
p6
aS'ifffhdddhhhhdhhhf'
p7
aS'fiiiifffchhhhhffd'
p8
aS'ifffffhhhhhhhddhd'
p9
aS'fiifffdhdddhhddff'
p10
aS'ffffidhhhhddhhffi'
p11
aS'ifffifdddddddffff'
p12
atp13
a(VB
p14
(lp15
S'fdcgggggggggggggg'
p16
aS'febggccccchhhhhhd'
p17
aS'efgcggggggggcgggg'
p18
aS'bccgggggggggchhhh'
p19
aS'ffgggggggggggghhh'
p20
aS'iiidcggggggggggch'
p21
aS'fihehhggggggggggg'
p22
aS'ifedddccgbggggggg'
p23
aS'dhcdgggggggggggcc'
p24
aS'dcccgggggghhhhhhh'
p25
atp26
a(VC
p27
(lp28
S'fddhhhhhhhhhhhhii'
p29
aS'fhhhhhhhhhhhhhhhh'
p30
aS'fddhhhhhhhhhhhhhh'
p31
aS'fhhhhhhhhhhhhhhhh'
p32
aS'fhdhhdhhdhhhhhhdd'
p33
aS'fdhhhhhhhhhhhhhhi'
p34
aS'fddedhhhhhhhhhhhh'
p35
aS'fhhhhhhhhhhhhhhhh'
p36
aS'fhhhhhhhhhhhhhiii'
p37
aS'fhdhhhhhhhhhhhhhh'
p38
atp39
a(VD
p40
(lp41
S'dghhhhhhhhhhhhhhd'
p42
aS'fiiihhhhhhhhhhhdd'
p43
aS'hdghhhhhhhhhhhhhh'
p44
aS'fjihhhhhhhhhhhhhh'
p45
aS'ddhhhhhhhhhhhhhhh'
p46
aS'ifdhhhhhhhhhhhhhh'
p47
aS'fcdihhhhhhhhhhhhh'
p48
aS'fddhhhhhhhhhhhhhh'
p49
aS'iiihdhhhhhhhhhhhd'
p50
aS'iffddhhhhhhhhhhhh'
p51
atp52
a(VE
p53
(lp54
S'idddhhgggggggghhh'
p55
aS'hdhggggghhhhhhhii'
p56
aS'ifdddgggggggggghh'
p57
aS'idddccgggggggghhh'
p58
aS'fdhgggggggggggggg'
p59
aS'dcggggggggggggggh'
p60
aS'fcggggggggghiiiii'
p61
aS'ifdcggggggggghhii'
p62
aS'fdhgggggggggdhghh'
p63
aS'ifdgggggggggghhhh'
p64
atp65
a(VF
p66
(lp67
S'iifddggghhhhhhhii'
p68
aS'fcchhhhhhhhhhhhhi'
p69
aS'fifggdhhhhhhhhhhh'
p70
aS'iiiddccghhhhhhhhh'
p71
aS'ddcghhhhhhhhhhhii'
p72
aS'fddhhhhhhhhhhhhii'
p73
aS'dcghhhhhhhhhhhhii'
p74
aS'fidchhhhhhhhhhhii'
p75
aS'ddhhhhhhhhhhhhiii'
p76
aS'ifgcghhhhhhhhhhhh'
p77
atp78
a(VG
p79
(lp80
S'fehhhhhhhhhhhhhdh'
p81
aS'fdhdhhhhhhhhhhhhh'
p82
aS'fdhhhhhhhhhhhhhhi'
p83
aS'fdhhhhhhhhhgggggg'
p84
aS'fdhhhhhhggggggdch'
p85
aS'fdhhhhhhhhhhhhggc'
p86
aS'fdhhhhhhhhhhhhhhh'
p87
aS'fdhhhhhhhhhhhhhhh'
p88
aS'fdhhhhhhhhhhhhhdd'
p89
aS'fdhhhhhhhhhhhhhhh'
p90
atp91
a(VH
p92
(lp93
S'ffdhiiiiiiiiiiidf'
p94
aS'fhiiiiiiiiiiiiiid'
p95
aS'ffiiiiiiiiiiihfii'
p96
aS'fiiiiiiiiiiiiiiii'
p97
aS'fdfiiiiiiiiiiiidh'
p98
aS'dfddhiiiiiiiiiiii'
p99
aS'fffjiiiiiiiiiiiih'
p100
aS'ifiiiiiiiiiiidffc'
p101
aS'ffjjiiiiiiiiiiiii'
p102
aS'fffffjiiiiiiiiiii'
p103
atp104
a(VI
p105
(lp106
S'iiihhhhhhhhhhddhh'
p107
aS'iihhhdddddiiiiiii'
p108
aS'iiiiiihhddddddffi'
p109
aS'iiihhhhhdhhhhiiii'
p110
aS'fffdddhhhhhhhhhii'
p111
aS'iiiiiifffffffffff'
p112
aS'iiiiiiiihdcccccdi'
p113
aS'iiiiiihhhhhhdddhh'
p114
aS'ihhhhhddhhhhhiiii'
p115
aS'ihhhhhhccchhiiiii'
p116
atp117
a(VJ
p118
(lp119
S'ffiiiiiiiiiiiihhh'
p120
aS'iiiiiiiiiiihhhhhd'
p121
aS'iiiiiiiiiiiiiiiii'
p122
aS'ffiiiiiiiiiiiiiii'
p123
aS'fiiiiiiiiiiiiiiii'
p124
aS'iiiiiiiiiiiiihhhh'
p125
aS'iiiiiiiiiihhhhhdd'
p126
aS'fiiiiiiiiiiiiifhe'
p127
aS'iiiiiiiiiiiiiiiii'
p128
aS'iiiiiiiiihhhhcccd'
p129
atp130
a(VK
p131
(lp132
S'dfhhhhhhhhhhhhhhh'
p133
aS'dffhhhhhhhhhhhhhh'
p134
aS'ifdffhhhhhhhhhhhh'
p135
aS'dcfihhhhhhhhhhhhh'
p136
aS'fffdiiihhhhhhhhdh'
p137
aS'fhhhhhhhhhhhhhhhh'
p138
aS'hgccfhhhhhhhhhhhh'
p139
aS'fffhhdhhhhhhhhhhi'
p140
aS'fffihhhhhhhhhhhhh'
p141
aS'hfhhhhhhhhhhhhhhh'
p142
atp143
a(VL
p144
(lp145
S'fiiiiiiiiiiiiiiii'
p146
aS'fddiiiiiiiiiiiiii'
p147
aS'fdddiiiiiiiiiiiii'
p148
aS'fiiiiiiiiiiiiiiii'
p149
aS'fdcddiiiiiiiiiiii'
p150
aS'fiiiiiiiiiiiiiiii'
p151
aS'fiiiiiiiiiiiiiiii'
p152
aS'fdiiiiiiiiiiiiiii'
p153
aS'fiiiiiiiiiiiiiiii'
p154
aS'ffiiiiiiiiiiiiiii'
p155
atp156
a(VM
p157
(lp158
S'diifiiiiiiifffiff'
p159
aS'dfffififffifiiiif'
p160
aS'ffiifiififffifiii'
p161
aS'fjiiiiiifiiiiiiif'
p162
aS'iffjifiiiiffifiif'
p163
aS'fdiiffifiifiiiifi'
p164
aS'fffffffffiffiffff'
p165
aS'idffififffiififff'
p166
aS'fffffffffffffifff'
p167
aS'fffffifiiiiiiiiii'
p168
atp169
a(VN
p170
(lp171
S'fffffjiiiiiffffdf'
p172
aS'ddfiiiiiiiiiiiiff'
p173
aS'iffffiiiiifffffif'
p174
aS'fddiiiiiiiiiiiiii'
p175
aS'ffjhhiiiiiiifiiff'
p176
aS'fdffffjifffffffff'
p177
aS'fiiiifiiiiiiiiiif'
p178
aS'fffiiiiiiiifiifff'
p179
aS'fddiiiiiiiiiiiiii'
p180
aS'fiiiiiiiiiiiiiifd'
p181
atp182
a(VO
p183
(lp184
S'fhhhhhhhhhhhhhhhh'
p185
aS'fdhhhhhhhhhhhdghh'
p186
aS'fdhhhhhhhhhhhhhgg'
p187
aS'fdhdhhhhhhhhhhhhg'
p188
aS'feddhhhhhhhgggggh'
p189
aS'fdddhhhhhhhhhhhhc'
p190
aS'fddhhhhhhhhhhhhhd'
p191
aS'fddddhhhhhhhhhhhh'
p192
aS'fhhhhhhgggggghhhh'
p193
aS'fhhhhggggihhhhhhh'
p194
atp195
a(VP
p196
(lp197
S'ffciiiihhhhhhhhhh'
p198
aS'fihhhhhhhhhhhhhhh'
p199
aS'ffiihhhhhhhhhhhhh'
p200
aS'iiiiifhhhhhhhhhhh'
p201
aS'fffddhhhhhhhhhhhh'
p202
aS'ffihhhhhhhhhhhhhh'
p203
aS'iffhhhhhhhhhhhhhh'
p204
aS'fdhhhhhhhhhhhhhhh'
p205
aS'ffdddhiiihhhhhhhd'
p206
aS'iiihdcghhhhhhhhhh'
p207
atp208
a(VQ
p209
(lp210
S'fdhhhhhhhggggggcd'
p211
aS'fddhhhhhhhhccbddi'
p212
aS'fhdhhhhhhhhggcccc'
p213
aS'fhhhhhhhhhggggggd'
p214
aS'fhhhhhhhhhhhhgdgd'
p215
aS'fhhhhhghhhggggddi'
p216
aS'fdhhhhhhhhhhhggdg'
p217
aS'fhhhhhhhhhhghhghh'
p218
aS'fdhhhhhhhhhhhgggd'
p219
aS'fddcgggggggggdggc'
p220
atp221
a(VR
p222
(lp223
S'fijjhgggggggggggc'
p224
aS'ffddggggggghiiiii'
p225
aS'dffcggggggggggggh'
p226
aS'iifffccgggggggggg'
p227
aS'fihhhggggggggggdi'
p228
aS'fccgggggggggggggg'
p229
aS'ddggggggggggggcdi'
p230
aS'fihggggggggdhiiii'
p231
aS'ifdhhhhhggggggggg'
p232
aS'ffffffdgggggggggg'
p233
atp234
a(VS
p235
(lp236
S'iidgggggggggggggg'
p237
aS'ihdgggggggggggggg'
p238
aS'fgggggggggggggggd'
p239
aS'fhggggggggggggggg'
p240
aS'iiiddgggggggcghhh'
p241
aS'dgggggggggggggggg'
p242
aS'dcggggggggggdiiii'
p243
aS'iiiiidcgggggggghg'
p244
aS'fhgggggggggggghhh'
p245
aS'fhhhhhhhggggggggg'
p246
atp247
a(VT
p248
(lp249
S'iiiiiiiiiddiiiiii'
p250
aS'iiiiiiiifdiiiiiii'
p251
aS'iiiiiiiiiifdiiiii'
p252
aS'iiiiiiihddiiiiiii'
p253
aS'iiiiiiiiiiidiiiii'
p254
aS'iiiiiiiiiiidiiiii'
p255
aS'iiiiiiiiddfiiiiii'
p256
aS'iiiiiiiiiidfiiiii'
p257
aS'iiiiiiiiiifiiiiii'
p258
aS'iiiiiiiifiiiiiiii'
p259
atp260
a(VU
p261
(lp262
S'fiiiiiiiiiiiiiiii'
p263
aS'fiiiiiiiiiiiiiiid'
p264
aS'fffiiiiiiiiiiiiff'
p265
aS'fiiiiiiiiiiiiiiii'
p266
aS'fiiiiiiiiiiiiiiii'
p267
aS'ffffiiiiiiiiiiiif'
p268
aS'fefiiiiiiiiiiiiff'
p269
aS'fhiiiiiiiiiiiiiii'
p270
aS'ffiiiiiiiiiiiiiif'
p271
aS'fhiiiiiiiiiiiiiii'
p272
atp273
a(VV
p274
(lp275
S'iiiiiiiiifiifffff'
p276
aS'ffffiiiiiiiiiiiii'
p277
aS'iiiiiiiiiiiiifiii'
p278
aS'ffffffifififfffii'
p279
aS'ffffiiiijifffiiif'
p280
aS'iiiffiffiiiiffiii'
p281
aS'fffffffififffffff'
p282
aS'ifffffiiiiiiiiiii'
p283
aS'ffffifiiiiffffiff'
p284
aS'iiiiiiifiiiiiiifi'
p285
atp286
a(VW
p287
(lp288
S'fffffffifffffiiii'
p289
aS'fffifffiffffififf'
p290
aS'fffffffiiiffffffi'
p291
aS'ifffffffffiffjfff'
p292
aS'ffffiffffffffifij'
p293
aS'fffiiffiiiifffffi'
p294
aS'fffiiiiiiiiiiffff'
p295
aS'ffffffiiffffiffff'
p296
aS'fiifiiiifiiiffffi'
p297
aS'ifiiiiffffffffiff'
p298
atp299
a(VX
p300
(lp301
S'iffiiihhddhfdedhh'
p302
aS'hhhhhhhhhhhifhhhd'
p303
aS'iiiiiiiiiihhhhfhd'
p304
aS'iiihgghhhhihhhhhh'
p305
aS'ihhhhhhhhihhhhhhh'
p306
aS'iiihhhhhihhhhhhhh'
p307
aS'iiiihhhhhiihhhhhh'
p308
aS'iiiiiiihhhihhhhhh'
p309
aS'fiidcdhfhhhhhhhhi'
p310
aS'iihhhhhhiihhhhhhh'
p311
atp312
a(VY
p313
(lp314
S'ffiffddddhiiiiiii'
p315
aS'iiiiiiiiiiiiiiffi'
p316
aS'iiiiiiiiiiifiiiii'
p317
aS'iiiiiiiiiiiifciii'
p318
aS'iiiiiiiiififfiiii'
p319
aS'iiiiiiiiffddiiiii'
p320
aS'ifiihhhifddddiiii'
p321
aS'iiiiiiiiifhiiiiii'
p322
aS'iifiiiiifdiiiiiii'
p323
aS'iiiiiiiiiiiiiiife'
p324
atp325
a(VZ
p326
(lp327
S'iiidggggggggggggc'
p328
aS'dggggggggggghiiii'
p329
aS'fhggggggggggggggg'
p330
aS'hgggggggggggggggh'
p331
aS'dgggggggggggggggg'
p332
aS'ihggggggggdhiiiii'
p333
aS'iiiiiidgggggggggg'
p334
aS'igggggggggggggghh'
p335
aS'iihggcggggggggggg'
p336
aS'fhgggggggggggghhi'
p337
atp338
a.